; Function Attrs: mustprogress uwtable
define noundef i32 @_ZN3nix14LegacySSHStore11getProtocolEv(ptr nocapture noundef nonnull readonly align 8 dereferenceable(416) %0) unnamed_addr #5 align 2 personality ptr @__gxx_personality_v0 {
  %2 = alloca %"class.nix::Pool<nix::LegacySSHStore::Connection>::Handle", align 8
  %3 = getelementptr inbounds i8, ptr %0, i64 192
  %4 = load ptr, ptr %3, align 8
  call void @_ZN3nix4PoolINS_14LegacySSHStore10ConnectionEE3getEv(ptr dead_on_unwind nonnull writable sret(%"class.nix::Pool<nix::LegacySSHStore::Connection>::Handle") align 8 %2, ptr noundef nonnull align 8 dereferenceable(192) %4)
  %5 = getelementptr inbounds i8, ptr %2, i64 8
  %6 = load ptr, ptr %5, align 8
  %7 = getelementptr inbounds i8, ptr %6, i64 160
  %8 = load i32, ptr %7, align 8
  call void @_ZN3nix4PoolINS_14LegacySSHStore10ConnectionEE6HandleD2Ev(ptr noundef nonnull align 8 dereferenceable(25) %2) #29
  ret i32 %8
}